#include <math.h>
#include <stdio.h>
#include <stdlib.h>
#include <string.h>
#include <iostream>
using namespace std;

/*
 * delete numbers.cpp
 *
 *  Created on: 2012-11-5
 *      Author: Lsj
 */
int main() {
	int n, i = 0, p, k;//??n?i?p?k
	cin >> n;//?????????n
	p = n;//???p???n
	int a[n];//????
	for (i = 0; i < n; i++)
		cin >> a[i];//?????
	cin >> k;//???????k
	for (i = 0; i < n; i++) {
		if (a[i] == k)
			p -= 1;//???????????
	}
	for (i = 0; i < n; i++) {
		if (a[i] != k) {//????????
			p -= 1;
			if (p == 0)//???0??????????????
				cout << a[i];
			else
				cout << a[i] << " ";//??????????????
		}
	}
	return 0;
}//??
